target datalayout = "e-m:e-p270:32:32-p271:32:32-p272:64:64-i64:64-i128:128-f80:128-n8:16:32:64-S128"
target triple = "x86_64-pc-linux-gnu"

%class.symbol = type { ptr }
%"class.datatype::accessor" = type { %class.symbol, %class.obj_ref, i32, ptr }
%class.obj_ref = type { ptr, ptr }
%class.ref_manager_wrapper = type { ptr }
%class.ref_vector_core = type { %class.ref_manager_wrapper, %class.ptr_vector }
%class.ptr_vector = type { %class.vector }
%class.vector = type { ptr }
%"class.datatype::def" = type { ptr, ptr, %class.symbol, i32, ptr, %class.ref_vector, %class.obj_ref, %class.ptr_vector.29 }
%class.ref_vector = type { %class.ref_vector_core }
%class.ptr_vector.29 = type { %class.vector.30 }
%class.vector.30 = type { ptr }
%"class.datatype::constructor" = type { %class.symbol, %class.symbol, %class.ptr_vector.44, ptr }
%class.ptr_vector.44 = type { %class.vector.45 }
%class.vector.45 = type { ptr }

; Function Attrs: mustprogress nounwind uwtable
define linkonce_odr hidden noundef nonnull align 8 dereferenceable(24) ptr @_ZNK8datatype3def1uEv(ptr noundef nonnull align 8 dereferenceable(80) %0) #5 comdat align 2 {
  %2 = alloca ptr, align 8
  store ptr %0, ptr %2, align 8, !tbaa !31
  %3 = load ptr, ptr %2, align 8
  %4 = getelementptr inbounds nuw %"class.datatype::def", ptr %3, i32 0, i32 1
  %5 = load ptr, ptr %4, align 8, !tbaa !59
  ret ptr %5
}

; Function Attrs: mustprogress uwtable
define hidden noundef nonnull align 8 dereferenceable(24) ptr @_ZNK8datatype11constructor1uEv(ptr noundef nonnull align 8 dereferenceable(32) %0) #4 align 2 {
  %2 = alloca ptr, align 8
  store ptr %0, ptr %2, align 8, !tbaa !51
  %3 = load ptr, ptr %2, align 8
  %4 = getelementptr inbounds nuw %"class.datatype::constructor", ptr %3, i32 0, i32 3
  %5 = load ptr, ptr %4, align 8, !tbaa !65
  %6 = call noundef nonnull align 8 dereferenceable(24) ptr @_ZNK8datatype3def1uEv(ptr noundef nonnull align 8 dereferenceable(80) %5)
  ret ptr %6
}

; Function Attrs: mustprogress uwtable
define hidden noundef nonnull align 8 dereferenceable(24) ptr @_ZNK8datatype8accessor1uEv(ptr noundef nonnull align 8 dereferenceable(40) %0) #4 align 2 {
  %2 = alloca ptr, align 8
  store ptr %0, ptr %2, align 8, !tbaa !3
  %3 = load ptr, ptr %2, align 8
  %4 = getelementptr inbounds nuw %"class.datatype::accessor", ptr %3, i32 0, i32 3
  %5 = load ptr, ptr %4, align 8, !tbaa !30
  %6 = call noundef nonnull align 8 dereferenceable(24) ptr @_ZNK8datatype11constructor1uEv(ptr noundef nonnull align 8 dereferenceable(32) %5)
  ret ptr %6
}